(dp0
S'IW_PLATFORM_S3E'
p1
NsS'I3D_PLATFORM_S3E'
p2
NsS'S3E_INCLUDE_LEGACY'
p3
NsS'IW_SDK'
p4
NsS'__S3E__'
p5
NsS'IW_APP_NAME'
p6
S'"FlappyJam"'
p7
sS'IW_MKF_QUICK_PREBUILT'
p8
NsS'I3D_ARCH_X86'
p9
NsS'I3D_OS_S3E'
p10
NsS'IW_APP_VERSION'
p11
S'"1.0"'
p12
sS'IW_DEBUG'
p13
NsS'IW_MKF_QUICK_PREBUILT_OPTIONS'
p14
Ns.